target datalayout = "e-m:e-p270:32:32-p271:32:32-p272:64:64-i64:64-i128:128-f80:128-n8:16:32:64-S128"
target triple = "x86_64-pc-linux-gnu"

@.str.1 = private unnamed_addr constant [12 x i8] c"androiddump\00", align 1
@.str.2 = private unnamed_addr constant [21 x i8] c"extcap/androiddump.c\00", align 1
@.str.39 = private unnamed_addr constant [26 x i8] c"android-bluetooth-hcidump\00", align 1
@.str.40 = private unnamed_addr constant [34 x i8] c"android-bluetooth-external-parser\00", align 1
@.str.41 = private unnamed_addr constant [30 x i8] c"android-bluetooth-btsnoop-net\00", align 1
@.str.42 = private unnamed_addr constant [16 x i8] c"android-tcpdump\00", align 1
@__func__.list_config = private unnamed_addr constant [12 x i8] c"list_config\00", align 1
@.str.141 = private unnamed_addr constant [24 x i8] c"No interface specified.\00", align 1
@.str.142 = private unnamed_addr constant [102 x i8] c"arg {number=%u}{call=--adb-server-ip}{display=ADB Server IP Address}{type=string}{default=127.0.0.1}\0A\00", align 1
@.str.143 = private unnamed_addr constant [117 x i8] c"arg {number=%u}{call=--adb-server-tcp-port}{display=ADB Server TCP Port}{type=integer}{range=0,65535}{default=5037}\0A\00", align 1
@.str.144 = private unnamed_addr constant [122 x i8] c"arg {number=%u}{call=--bt-server-tcp-port}{display=Bluetooth Server TCP Port}{type=integer}{range=0,65535}{default=4330}\0A\00", align 1
@.str.145 = private unnamed_addr constant [106 x i8] c"arg {number=%u}{call=--bt-forward-socket}{display=Forward Bluetooth Socket}{type=boolean}{default=false}\0A\00", align 1
@.str.146 = private unnamed_addr constant [105 x i8] c"arg {number=%u}{call=--bt-local-ip}{display=Bluetooth Local IP Address}{type=string}{default=127.0.0.1}\0A\00", align 1
@.str.147 = private unnamed_addr constant [193 x i8] c"arg {number=%u}{call=--bt-local-tcp-port}{display=Bluetooth Local TCP Port}{type=integer}{range=0,65535}{default=4330}{tooltip=Used to do \22adb forward tcp:LOCAL_TCP_PORT tcp:SERVER_TCP_PORT\22}\0A\00", align 1
@.str.148 = private unnamed_addr constant [91 x i8] c"arg {number=%u}{call=--logcat-text}{display=Use text logcat}{type=boolean}{default=false}\0A\00", align 1
@.str.149 = private unnamed_addr constant [106 x i8] c"arg {number=%u}{call=--logcat-ignore-log-buffer}{display=Ignore log buffer}{type=boolean}{default=false}\0A\00", align 1
@.str.150 = private unnamed_addr constant [94 x i8] c"arg {number=%u}{call=--logcat-custom-options}{display=Custom logcat parameters}{type=string}\0A\00", align 1
@.str.151 = private unnamed_addr constant [24 x i8] c"Invalid interface: <%s>\00", align 1

; Function Attrs: inlinehint nounwind null_pointer_is_valid sspstrong uwtable
define internal i32 @is_specified_interface(ptr noundef %0, ptr noundef %1) #7 {
  %3 = alloca ptr, align 8
  %4 = alloca ptr, align 8
  store ptr %0, ptr %3, align 8
  store ptr %1, ptr %4, align 8
  %5 = load ptr, ptr %3, align 8
  %6 = load ptr, ptr %4, align 8
  %7 = load ptr, ptr %4, align 8
  %8 = call i64 @strlen(ptr noundef %7) #21
  %9 = call i32 @strncmp(ptr noundef %5, ptr noundef %6, i64 noundef %8) #21
  %10 = icmp ne i32 %9, 0
  %11 = xor i1 %10, true
  %12 = zext i1 %11 to i32
  ret i32 %12
}

; Function Attrs: null_pointer_is_valid sspstrong uwtable
define internal i32 @list_config(ptr noundef %0) #0 {
  %2 = alloca i32, align 4
  %3 = alloca ptr, align 8
  %4 = alloca i32, align 4
  %5 = alloca i32, align 4
  %6 = alloca i32, align 4
  store ptr %0, ptr %3, align 8
  call void @llvm.lifetime.start.p0(i64 4, ptr %4) #17
  store i32 7, ptr %4, align 4
  call void @llvm.lifetime.start.p0(i64 4, ptr %5) #17
  store i32 0, ptr %5, align 4
  %7 = load ptr, ptr %3, align 8
  %8 = icmp ne ptr %7, null
  br i1 %8, label %13, label %9

9:                                                ; preds = %1
  br label %10

10:                                               ; preds = %9
  call void (ptr, i32, ptr, i64, ptr, ptr, ...) @ws_log_full(ptr noundef @.str.1, i32 noundef 5, ptr noundef @.str.2, i64 noundef 1292, ptr noundef @__func__.list_config, ptr noundef @.str.141)
  br label %11

11:                                               ; preds = %10
  br label %12

12:                                               ; preds = %11
  store i32 6, ptr %2, align 4
  store i32 1, ptr %6, align 4
  br label %104

13:                                               ; preds = %1
  %14 = load ptr, ptr %3, align 8
  %15 = call i32 @is_specified_interface(ptr noundef %14, ptr noundef @.str.40)
  %16 = icmp ne i32 %15, 0
  br i1 %16, label %17, label %36

17:                                               ; preds = %13
  %18 = load i32, ptr %5, align 4
  %19 = add i32 %18, 1
  store i32 %19, ptr %5, align 4
  %20 = call i32 (i32, ptr, ...) @__printf_chk(i32 noundef 2, ptr noundef @.str.142, i32 noundef %18)
  %21 = load i32, ptr %5, align 4
  %22 = add i32 %21, 1
  store i32 %22, ptr %5, align 4
  %23 = call i32 (i32, ptr, ...) @__printf_chk(i32 noundef 2, ptr noundef @.str.143, i32 noundef %21)
  %24 = load i32, ptr %5, align 4
  %25 = add i32 %24, 1
  store i32 %25, ptr %5, align 4
  %26 = call i32 (i32, ptr, ...) @__printf_chk(i32 noundef 2, ptr noundef @.str.144, i32 noundef %24)
  %27 = load i32, ptr %5, align 4
  %28 = add i32 %27, 1
  store i32 %28, ptr %5, align 4
  %29 = call i32 (i32, ptr, ...) @__printf_chk(i32 noundef 2, ptr noundef @.str.145, i32 noundef %27)
  %30 = load i32, ptr %5, align 4
  %31 = add i32 %30, 1
  store i32 %31, ptr %5, align 4
  %32 = call i32 (i32, ptr, ...) @__printf_chk(i32 noundef 2, ptr noundef @.str.146, i32 noundef %30)
  %33 = load i32, ptr %5, align 4
  %34 = add i32 %33, 1
  store i32 %34, ptr %5, align 4
  %35 = call i32 (i32, ptr, ...) @__printf_chk(i32 noundef 2, ptr noundef @.str.147, i32 noundef %33)
  store i32 0, ptr %4, align 4
  br label %93

36:                                               ; preds = %13
  %37 = load ptr, ptr %3, align 8
  %38 = call i32 @is_specified_interface(ptr noundef %37, ptr noundef @.str.39)
  %39 = icmp ne i32 %38, 0
  br i1 %39, label %48, label %40

40:                                               ; preds = %36
  %41 = load ptr, ptr %3, align 8
  %42 = call i32 @is_specified_interface(ptr noundef %41, ptr noundef @.str.41)
  %43 = icmp ne i32 %42, 0
  br i1 %43, label %48, label %44

44:                                               ; preds = %40
  %45 = load ptr, ptr %3, align 8
  %46 = call i32 @is_specified_interface(ptr noundef %45, ptr noundef @.str.42)
  %47 = icmp ne i32 %46, 0
  br i1 %47, label %48, label %55

48:                                               ; preds = %44, %40, %36
  %49 = load i32, ptr %5, align 4
  %50 = add i32 %49, 1
  store i32 %50, ptr %5, align 4
  %51 = call i32 (i32, ptr, ...) @__printf_chk(i32 noundef 2, ptr noundef @.str.142, i32 noundef %49)
  %52 = load i32, ptr %5, align 4
  %53 = add i32 %52, 1
  store i32 %53, ptr %5, align 4
  %54 = call i32 (i32, ptr, ...) @__printf_chk(i32 noundef 2, ptr noundef @.str.143, i32 noundef %52)
  store i32 0, ptr %4, align 4
  br label %92

55:                                               ; preds = %44
  %56 = load ptr, ptr %3, align 8
  %57 = call zeroext i1 @is_logcat_interface(ptr noundef %56)
  br i1 %57, label %58, label %74

58:                                               ; preds = %55
  %59 = load i32, ptr %5, align 4
  %60 = add i32 %59, 1
  store i32 %60, ptr %5, align 4
  %61 = call i32 (i32, ptr, ...) @__printf_chk(i32 noundef 2, ptr noundef @.str.142, i32 noundef %59)
  %62 = load i32, ptr %5, align 4
  %63 = add i32 %62, 1
  store i32 %63, ptr %5, align 4
  %64 = call i32 (i32, ptr, ...) @__printf_chk(i32 noundef 2, ptr noundef @.str.143, i32 noundef %62)
  %65 = load i32, ptr %5, align 4
  %66 = add i32 %65, 1
  store i32 %66, ptr %5, align 4
  %67 = call i32 (i32, ptr, ...) @__printf_chk(i32 noundef 2, ptr noundef @.str.148, i32 noundef %65)
  %68 = load i32, ptr %5, align 4
  %69 = add i32 %68, 1
  store i32 %69, ptr %5, align 4
  %70 = call i32 (i32, ptr, ...) @__printf_chk(i32 noundef 2, ptr noundef @.str.149, i32 noundef %68)
  %71 = load i32, ptr %5, align 4
  %72 = add i32 %71, 1
  store i32 %72, ptr %5, align 4
  %73 = call i32 (i32, ptr, ...) @__printf_chk(i32 noundef 2, ptr noundef @.str.150, i32 noundef %71)
  store i32 0, ptr %4, align 4
  br label %91

74:                                               ; preds = %55
  %75 = load ptr, ptr %3, align 8
  %76 = call zeroext i1 @is_logcat_text_interface(ptr noundef %75)
  br i1 %76, label %77, label %90

77:                                               ; preds = %74
  %78 = load i32, ptr %5, align 4
  %79 = add i32 %78, 1
  store i32 %79, ptr %5, align 4
  %80 = call i32 (i32, ptr, ...) @__printf_chk(i32 noundef 2, ptr noundef @.str.142, i32 noundef %78)
  %81 = load i32, ptr %5, align 4
  %82 = add i32 %81, 1
  store i32 %82, ptr %5, align 4
  %83 = call i32 (i32, ptr, ...) @__printf_chk(i32 noundef 2, ptr noundef @.str.143, i32 noundef %81)
  %84 = load i32, ptr %5, align 4
  %85 = add i32 %84, 1
  store i32 %85, ptr %5, align 4
  %86 = call i32 (i32, ptr, ...) @__printf_chk(i32 noundef 2, ptr noundef @.str.149, i32 noundef %84)
  %87 = load i32, ptr %5, align 4
  %88 = add i32 %87, 1
  store i32 %88, ptr %5, align 4
  %89 = call i32 (i32, ptr, ...) @__printf_chk(i32 noundef 2, ptr noundef @.str.150, i32 noundef %87)
  store i32 0, ptr %4, align 4
  br label %90

90:                                               ; preds = %77, %74
  br label %91

91:                                               ; preds = %90, %58
  br label %92

92:                                               ; preds = %91, %48
  br label %93

93:                                               ; preds = %92, %17
  %94 = load i32, ptr %4, align 4
  %95 = icmp ne i32 %94, 0
  br i1 %95, label %96, label %101

96:                                               ; preds = %93
  br label %97

97:                                               ; preds = %96
  %98 = load ptr, ptr %3, align 8
  call void (ptr, i32, ptr, i64, ptr, ptr, ...) @ws_log_full(ptr noundef @.str.1, i32 noundef 5, ptr noundef @.str.2, i64 noundef 1326, ptr noundef @__func__.list_config, ptr noundef @.str.151, ptr noundef %98)
  br label %99

99:                                               ; preds = %97
  br label %100

100:                                              ; preds = %99
  br label %102

101:                                              ; preds = %93
  call void @extcap_config_debug(ptr noundef %5)
  br label %102

102:                                              ; preds = %101, %100
  %103 = load i32, ptr %4, align 4
  store i32 %103, ptr %2, align 4
  store i32 1, ptr %6, align 4
  br label %104

104:                                              ; preds = %102, %12
  call void @llvm.lifetime.end.p0(i64 4, ptr %5) #17
  call void @llvm.lifetime.end.p0(i64 4, ptr %4) #17
  %105 = load i32, ptr %2, align 4
  ret i32 %105
}