; Function Attrs: null_pointer_is_valid sspstrong uwtable
define internal fastcc range(i32 0, 8) i32 @list_config(ptr noundef %0) unnamed_addr #0 {
  %2 = alloca i32, align 4
  call void @llvm.lifetime.start.p0(i64 4, ptr nonnull %2) #19
  %.not = icmp eq ptr %0, null
  br i1 %.not, label %3, label %4

3:                                                ; preds = %1
  tail call void (ptr, i32, ptr, i64, ptr, ptr, ...) @ws_log_full(ptr noundef nonnull @.str.1, i32 noundef 5, ptr noundef nonnull @.str.2, i64 noundef 1292, ptr noundef nonnull @__func__.list_config, ptr noundef nonnull @.str.141)
  br label %39

4:                                                ; preds = %1
  %5 = tail call i32 @strncmp(ptr noundef nonnull readonly dereferenceable(1) %0, ptr noundef nonnull dereferenceable(34) @.str.40, i64 noundef 33) #22
  %.not.i.not = icmp eq i32 %5, 0
  br i1 %.not.i.not, label %6, label %13

6:                                                ; preds = %4
  %7 = tail call i32 (i32, ptr, ...) @__printf_chk(i32 noundef 2, ptr noundef nonnull @.str.142, i32 noundef 0)
  %8 = tail call i32 (i32, ptr, ...) @__printf_chk(i32 noundef 2, ptr noundef nonnull @.str.143, i32 noundef 1)
  %9 = tail call i32 (i32, ptr, ...) @__printf_chk(i32 noundef 2, ptr noundef nonnull @.str.144, i32 noundef 2)
  %10 = tail call i32 (i32, ptr, ...) @__printf_chk(i32 noundef 2, ptr noundef nonnull @.str.145, i32 noundef 3)
  %11 = tail call i32 (i32, ptr, ...) @__printf_chk(i32 noundef 2, ptr noundef nonnull @.str.146, i32 noundef 4)
  store i32 6, ptr %2, align 4
  %12 = tail call i32 (i32, ptr, ...) @__printf_chk(i32 noundef 2, ptr noundef nonnull @.str.147, i32 noundef 5)
  br label %38

13:                                               ; preds = %4
  %14 = tail call i32 @strncmp(ptr noundef nonnull readonly dereferenceable(1) %0, ptr noundef nonnull dereferenceable(26) @.str.39, i64 noundef 25) #22
  %.not.i17.not = icmp eq i32 %14, 0
  br i1 %.not.i17.not, label %19, label %15

15:                                               ; preds = %13
  %16 = tail call i32 @strncmp(ptr noundef nonnull readonly dereferenceable(1) %0, ptr noundef nonnull dereferenceable(30) @.str.41, i64 noundef 29) #22
  %.not.i18.not = icmp eq i32 %16, 0
  br i1 %.not.i18.not, label %19, label %17

17:                                               ; preds = %15
  %18 = tail call i32 @strncmp(ptr noundef nonnull readonly dereferenceable(1) %0, ptr noundef nonnull dereferenceable(16) @.str.42, i64 noundef 15) #22
  %.not.i19.not = icmp eq i32 %18, 0
  br i1 %.not.i19.not, label %19, label %22

19:                                               ; preds = %17, %15, %13
  %20 = tail call i32 (i32, ptr, ...) @__printf_chk(i32 noundef 2, ptr noundef nonnull @.str.142, i32 noundef 0)
  store i32 2, ptr %2, align 4
  %21 = tail call i32 (i32, ptr, ...) @__printf_chk(i32 noundef 2, ptr noundef nonnull @.str.143, i32 noundef 1)
  br label %38

22:                                               ; preds = %17
  %23 = tail call fastcc zeroext i1 @is_logcat_interface(ptr noundef nonnull %0)
  br i1 %23, label %24, label %30

24:                                               ; preds = %22
  %25 = tail call i32 (i32, ptr, ...) @__printf_chk(i32 noundef 2, ptr noundef nonnull @.str.142, i32 noundef 0)
  %26 = tail call i32 (i32, ptr, ...) @__printf_chk(i32 noundef 2, ptr noundef nonnull @.str.143, i32 noundef 1)
  %27 = tail call i32 (i32, ptr, ...) @__printf_chk(i32 noundef 2, ptr noundef nonnull @.str.148, i32 noundef 2)
  %28 = tail call i32 (i32, ptr, ...) @__printf_chk(i32 noundef 2, ptr noundef nonnull @.str.149, i32 noundef 3)
  store i32 5, ptr %2, align 4
  %29 = tail call i32 (i32, ptr, ...) @__printf_chk(i32 noundef 2, ptr noundef nonnull @.str.150, i32 noundef 4)
  br label %38

30:                                               ; preds = %22
  %31 = tail call fastcc zeroext i1 @is_logcat_text_interface(ptr noundef nonnull %0)
  br i1 %31, label %32, label %37

32:                                               ; preds = %30
  %33 = tail call i32 (i32, ptr, ...) @__printf_chk(i32 noundef 2, ptr noundef nonnull @.str.142, i32 noundef 0)
  %34 = tail call i32 (i32, ptr, ...) @__printf_chk(i32 noundef 2, ptr noundef nonnull @.str.143, i32 noundef 1)
  %35 = tail call i32 (i32, ptr, ...) @__printf_chk(i32 noundef 2, ptr noundef nonnull @.str.149, i32 noundef 2)
  store i32 4, ptr %2, align 4
  %36 = tail call i32 (i32, ptr, ...) @__printf_chk(i32 noundef 2, ptr noundef nonnull @.str.150, i32 noundef 3)
  br label %38

37:                                               ; preds = %30
  tail call void (ptr, i32, ptr, i64, ptr, ptr, ...) @ws_log_full(ptr noundef nonnull @.str.1, i32 noundef 5, ptr noundef nonnull @.str.2, i64 noundef 1326, ptr noundef nonnull @__func__.list_config, ptr noundef nonnull @.str.151, ptr noundef nonnull %0)
  br label %39

38:                                               ; preds = %6, %19, %24, %32
  call void @extcap_config_debug(ptr noundef nonnull %2)
  br label %39

39:                                               ; preds = %37, %38, %3
  %.010 = phi i32 [ 6, %3 ], [ 0, %38 ], [ 7, %37 ]
  call void @llvm.lifetime.end.p0(i64 4, ptr nonnull %2) #19
  ret i32 %.010
}